opt subtitle "HI-TECH Software Omniscient Code Generator (Lite mode) build 10920"

opt pagewidth 120

	opt lm

	processor	16F877A
clrc	macro
	bcf	3,0
	endm
clrz	macro
	bcf	3,2
	endm
setc	macro
	bsf	3,0
	endm
setz	macro
	bsf	3,2
	endm
skipc	macro
	btfss	3,0
	endm
skipz	macro
	btfss	3,2
	endm
skipnc	macro
	btfsc	3,0
	endm
skipnz	macro
	btfsc	3,2
	endm
indf	equ	0
indf0	equ	0
pc	equ	2
pcl	equ	2
status	equ	3
fsr	equ	4
fsr0	equ	4
c	equ	1
z	equ	0
pclath	equ	10
# 4 "E:\02-CODING\05-LYCASOFT CODING\02-CODING\13-LCD 0-9\CODE\LCD 0-9.c"
	psect config,class=CONFIG,delta=2 ;#
# 4 "E:\02-CODING\05-LYCASOFT CODING\02-CODING\13-LCD 0-9\CODE\LCD 0-9.c"
	dw 0X3F3A ;#
	FNCALL	_main,_Lcd_Intialization
	FNCALL	_main,_Lcd_Command
	FNCALL	_main,_Lcd_String
	FNCALL	_main,_Lcd_Data
	FNCALL	_Lcd_Intialization,_Lcd_Command
	FNCALL	_Lcd_String,_Lcd_Data
	FNROOT	_main
	global	_PORTD
psect	text100,local,class=CODE,delta=2
global __ptext100
__ptext100:
_PORTD	set	8
	global	_CARRY
_CARRY	set	24
	global	_GIE
_GIE	set	95
	global	_RD2
_RD2	set	66
	global	_RD3
_RD3	set	67
	global	_TRISD
_TRISD	set	136
	global	_EEADR
_EEADR	set	269
	global	_EEDATA
_EEDATA	set	268
	global	_EECON1
_EECON1	set	396
	global	_EECON2
_EECON2	set	397
	global	_RD
_RD	set	3168
	global	_WR
_WR	set	3169
	global	_WREN
_WREN	set	3170
psect	strings,class=STRING,delta=2
global __pstrings
__pstrings:
;	global	stringdir,stringtab,__stringbase
stringtab:
;	String table - string pointers are 1 byte each
stringcode:stringdir:
movlw high(stringdir)
movwf pclath
movf fsr,w
incf fsr
	addwf pc
__stringbase:
	retlw	0
psect	strings
	
STR_1:	
	retlw	76	;'L'
	retlw	89	;'Y'
	retlw	67	;'C'
	retlw	79	;'O'
	retlw	32	;' '
	retlw	83	;'S'
	retlw	79	;'O'
	retlw	70	;'F'
	retlw	84	;'T'
	retlw	0
psect	strings
	file	"LCD 0-9.as"
	line	#
psect cinit,class=CODE,delta=2
global start_initialization
start_initialization:

psect cinit,class=CODE,delta=2
global end_of_initialization

;End of C runtime variable initialization code

end_of_initialization:
clrf status
ljmp _main	;jump to C main() function
psect	cstackCOMMON,class=COMMON,space=1
global __pcstackCOMMON
__pcstackCOMMON:
	global	?_Lcd_Command
?_Lcd_Command:	; 0 bytes @ 0x0
	global	??_Lcd_Command
??_Lcd_Command:	; 0 bytes @ 0x0
	global	?_Lcd_Data
?_Lcd_Data:	; 0 bytes @ 0x0
	global	??_Lcd_Data
??_Lcd_Data:	; 0 bytes @ 0x0
	global	?_Lcd_String
?_Lcd_String:	; 0 bytes @ 0x0
	global	?_Lcd_Intialization
?_Lcd_Intialization:	; 0 bytes @ 0x0
	global	?_main
?_main:	; 0 bytes @ 0x0
	ds	2
	global	Lcd_Command@cmd
Lcd_Command@cmd:	; 1 bytes @ 0x2
	global	Lcd_Data@Data
Lcd_Data@Data:	; 1 bytes @ 0x2
	ds	1
	global	??_Lcd_String
??_Lcd_String:	; 0 bytes @ 0x3
	global	??_Lcd_Intialization
??_Lcd_Intialization:	; 0 bytes @ 0x3
	ds	1
	global	Lcd_String@Str
Lcd_String@Str:	; 1 bytes @ 0x4
	ds	1
	global	??_main
??_main:	; 0 bytes @ 0x5
	ds	3
	global	main@i
main@i:	; 2 bytes @ 0x8
	ds	2
;;Data sizes: Strings 10, constant 0, data 0, bss 0, persistent 0 stack 0
;;Auto spaces:   Size  Autos    Used
;; COMMON          14     10      10
;; BANK0           80      0       0
;; BANK1           80      0       0
;; BANK3           96      0       0
;; BANK2           96      0       0

;;
;; Pointer list with targets:

;; Lcd_String@Str	PTR const unsigned char  size(1) Largest target is 10
;;		 -> STR_1(CODE[10]), 
;;


;;
;; Critical Paths under _main in COMMON
;;
;;   _main->_Lcd_String
;;   _Lcd_Intialization->_Lcd_Command
;;   _Lcd_String->_Lcd_Data
;;
;; Critical Paths under _main in BANK0
;;
;;   None.
;;
;; Critical Paths under _main in BANK1
;;
;;   None.
;;
;; Critical Paths under _main in BANK3
;;
;;   None.
;;
;; Critical Paths under _main in BANK2
;;
;;   None.

;;
;;Main: autosize = 0, tempsize = 3, incstack = 0, save=0
;;

;;
;;Call Graph Tables:
;;
;; ---------------------------------------------------------------------------------
;; (Depth) Function   	        Calls       Base Space   Used Autos Params    Refs
;; ---------------------------------------------------------------------------------
;; (0) _main                                                 5     5      0     195
;;                                              5 COMMON     5     5      0
;;                  _Lcd_Intialization
;;                        _Lcd_Command
;;                         _Lcd_String
;;                           _Lcd_Data
;; ---------------------------------------------------------------------------------
;; (1) _Lcd_Intialization                                    0     0      0      30
;;                        _Lcd_Command
;; ---------------------------------------------------------------------------------
;; (1) _Lcd_String                                           2     2      0      60
;;                                              3 COMMON     2     2      0
;;                           _Lcd_Data
;; ---------------------------------------------------------------------------------
;; (1) _Lcd_Data                                             3     3      0      30
;;                                              0 COMMON     3     3      0
;; ---------------------------------------------------------------------------------
;; (1) _Lcd_Command                                          3     3      0      30
;;                                              0 COMMON     3     3      0
;; ---------------------------------------------------------------------------------
;; Estimated maximum stack depth 1
;; ---------------------------------------------------------------------------------

;; Call Graph Graphs:

;; _main (ROOT)
;;   _Lcd_Intialization
;;     _Lcd_Command
;;   _Lcd_Command
;;   _Lcd_String
;;     _Lcd_Data
;;   _Lcd_Data
;;

;; Address spaces:

;;Name               Size   Autos  Total    Cost      Usage
;;BITCOMMON            E      0       0       0        0.0%
;;EEDATA             100      0       0       0        0.0%
;;NULL                 0      0       0       0        0.0%
;;CODE                 0      0       0       0        0.0%
;;COMMON               E      A       A       1       71.4%
;;BITSFR0              0      0       0       1        0.0%
;;SFR0                 0      0       0       1        0.0%
;;BITSFR1              0      0       0       2        0.0%
;;SFR1                 0      0       0       2        0.0%
;;STACK                0      0       2       2        0.0%
;;ABS                  0      0       0       3        0.0%
;;BITBANK0            50      0       0       4        0.0%
;;BITSFR3              0      0       0       4        0.0%
;;SFR3                 0      0       0       4        0.0%
;;BANK0               50      0       0       5        0.0%
;;BITSFR2              0      0       0       5        0.0%
;;SFR2                 0      0       0       5        0.0%
;;BITBANK1            50      0       0       6        0.0%
;;BANK1               50      0       0       7        0.0%
;;BITBANK3            60      0       0       8        0.0%
;;BANK3               60      0       0       9        0.0%
;;BITBANK2            60      0       0      10        0.0%
;;BANK2               60      0       0      11        0.0%
;;DATA                 0      0       0      12        0.0%

	global	_main
psect	maintext,global,class=CODE,delta=2
global __pmaintext
__pmaintext:

;; *************** function _main *****************
;; Defined at:
;;		line 58 in file "E:\02-CODING\05-LYCASOFT CODING\02-CODING\13-LCD 0-9\CODE\LCD 0-9.c"
;; Parameters:    Size  Location     Type
;;		None
;; Auto vars:     Size  Location     Type
;;  i               2    8[COMMON] int 
;; Return value:  Size  Location     Type
;;		None               void
;; Registers used:
;;		wreg, fsr0l, fsr0h, status,2, status,0, btemp+1, pclath, cstack
;; Tracked objects:
;;		On entry : 17F/0
;;		On exit  : 0/0
;;		Unchanged: 0/0
;; Data sizes:     COMMON   BANK0   BANK1   BANK3   BANK2
;;      Params:         0       0       0       0       0
;;      Locals:         2       0       0       0       0
;;      Temps:          3       0       0       0       0
;;      Totals:         5       0       0       0       0
;;Total ram usage:        5 bytes
;; Hardware stack levels required when called:    2
;; This function calls:
;;		_Lcd_Intialization
;;		_Lcd_Command
;;		_Lcd_String
;;		_Lcd_Data
;; This function is called by:
;;		Startup code after reset
;; This function uses a non-reentrant model
;;
psect	maintext
	file	"E:\02-CODING\05-LYCASOFT CODING\02-CODING\13-LCD 0-9\CODE\LCD 0-9.c"
	line	58
	global	__size_of_main
	__size_of_main	equ	__end_of_main-_main
	
_main:	
	opt	stack 6
; Regs used in _main: [wreg-fsr0h+status,2+status,0+btemp+1+pclath+cstack]
	line	59
	
l2662:	
;LCD 0-9.c: 59: TRISD=0X00;
	bsf	status, 5	;RP0=1, select bank1
	bcf	status, 6	;RP1=0, select bank1
	clrf	(136)^080h	;volatile
	line	60
;LCD 0-9.c: 60: PORTD=0X00;
	bcf	status, 5	;RP0=0, select bank0
	bcf	status, 6	;RP1=0, select bank0
	clrf	(8)	;volatile
	line	64
	
l2664:	
;LCD 0-9.c: 62: int i;
;LCD 0-9.c: 64: Lcd_Intialization();
	fcall	_Lcd_Intialization
	line	66
	
l2666:	
;LCD 0-9.c: 66: Lcd_Command(0x80);
	movlw	(080h)
	fcall	_Lcd_Command
	line	67
	
l2668:	
;LCD 0-9.c: 67: Lcd_String("LYCO SOFT");
	movlw	((STR_1-__stringbase))&0ffh
	fcall	_Lcd_String
	goto	l2670
	line	69
;LCD 0-9.c: 69: while(1)
	
l702:	
	line	71
	
l2670:	
;LCD 0-9.c: 70: {
;LCD 0-9.c: 71: for(i=0;i<10;i++)
	clrf	(main@i)
	clrf	(main@i+1)
	
l2672:	
	movf	(main@i+1),w
	xorlw	80h
	movwf	btemp+1
	movlw	(high(0Ah))^80h
	subwf	btemp+1,w
	skipz
	goto	u2255
	movlw	low(0Ah)
	subwf	(main@i),w
u2255:

	skipc
	goto	u2251
	goto	u2250
u2251:
	goto	l2676
u2250:
	goto	l2670
	
l2674:	
	goto	l2670
	line	72
	
l703:	
	line	73
	
l2676:	
;LCD 0-9.c: 72: {
;LCD 0-9.c: 73: Lcd_Command(0xc0);
	movlw	(0C0h)
	fcall	_Lcd_Command
	line	74
;LCD 0-9.c: 74: Lcd_Data(i+48);
	movf	(main@i),w
	addlw	030h
	fcall	_Lcd_Data
	line	75
	
l2678:	
;LCD 0-9.c: 75: _delay((unsigned long)((1000)*(20e6/4000.0)));
	opt asmopt_off
movlw  26
movwf	((??_main+0)+0+2),f
movlw	94
movwf	((??_main+0)+0+1),f
	movlw	134
movwf	((??_main+0)+0),f
u2277:
	decfsz	((??_main+0)+0),f
	goto	u2277
	decfsz	((??_main+0)+0+1),f
	goto	u2277
	decfsz	((??_main+0)+0+2),f
	goto	u2277
	clrwdt
opt asmopt_on

	line	71
	
l2680:	
	movlw	low(01h)
	addwf	(main@i),f
	skipnc
	incf	(main@i+1),f
	movlw	high(01h)
	addwf	(main@i+1),f
	
l2682:	
	movf	(main@i+1),w
	xorlw	80h
	movwf	btemp+1
	movlw	(high(0Ah))^80h
	subwf	btemp+1,w
	skipz
	goto	u2265
	movlw	low(0Ah)
	subwf	(main@i),w
u2265:

	skipc
	goto	u2261
	goto	u2260
u2261:
	goto	l2676
u2260:
	goto	l2670
	
l704:	
	goto	l2670
	line	77
	
l705:	
	line	69
	goto	l2670
	
l706:	
	line	78
	
l707:	
	global	start
	ljmp	start
	opt stack 0
GLOBAL	__end_of_main
	__end_of_main:
;; =============== function _main ends ============

	signat	_main,88
	global	_Lcd_Intialization
psect	text101,local,class=CODE,delta=2
global __ptext101
__ptext101:

;; *************** function _Lcd_Intialization *****************
;; Defined at:
;;		line 51 in file "E:\02-CODING\05-LYCASOFT CODING\02-CODING\13-LCD 0-9\CODE\LCD 0-9.c"
;; Parameters:    Size  Location     Type
;;		None
;; Auto vars:     Size  Location     Type
;;		None
;; Return value:  Size  Location     Type
;;		None               void
;; Registers used:
;;		wreg, status,2, status,0, pclath, cstack
;; Tracked objects:
;;		On entry : 0/0
;;		On exit  : 0/0
;;		Unchanged: 0/0
;; Data sizes:     COMMON   BANK0   BANK1   BANK3   BANK2
;;      Params:         0       0       0       0       0
;;      Locals:         0       0       0       0       0
;;      Temps:          0       0       0       0       0
;;      Totals:         0       0       0       0       0
;;Total ram usage:        0 bytes
;; Hardware stack levels used:    1
;; Hardware stack levels required when called:    1
;; This function calls:
;;		_Lcd_Command
;; This function is called by:
;;		_main
;; This function uses a non-reentrant model
;;
psect	text101
	file	"E:\02-CODING\05-LYCASOFT CODING\02-CODING\13-LCD 0-9\CODE\LCD 0-9.c"
	line	51
	global	__size_of_Lcd_Intialization
	__size_of_Lcd_Intialization	equ	__end_of_Lcd_Intialization-_Lcd_Intialization
	
_Lcd_Intialization:	
	opt	stack 6
; Regs used in _Lcd_Intialization: [wreg+status,2+status,0+pclath+cstack]
	line	52
	
l2660:	
;LCD 0-9.c: 52: Lcd_Command(0x02);
	movlw	(02h)
	fcall	_Lcd_Command
	line	53
;LCD 0-9.c: 53: Lcd_Command(0x28);
	movlw	(028h)
	fcall	_Lcd_Command
	line	54
;LCD 0-9.c: 54: Lcd_Command(0x0c);
	movlw	(0Ch)
	fcall	_Lcd_Command
	line	55
	
l699:	
	return
	opt stack 0
GLOBAL	__end_of_Lcd_Intialization
	__end_of_Lcd_Intialization:
;; =============== function _Lcd_Intialization ends ============

	signat	_Lcd_Intialization,88
	global	_Lcd_String
psect	text102,local,class=CODE,delta=2
global __ptext102
__ptext102:

;; *************** function _Lcd_String *****************
;; Defined at:
;;		line 43 in file "E:\02-CODING\05-LYCASOFT CODING\02-CODING\13-LCD 0-9\CODE\LCD 0-9.c"
;; Parameters:    Size  Location     Type
;;  Str             1    wreg     PTR const unsigned char 
;;		 -> STR_1(10), 
;; Auto vars:     Size  Location     Type
;;  Str             1    4[COMMON] PTR const unsigned char 
;;		 -> STR_1(10), 
;; Return value:  Size  Location     Type
;;		None               void
;; Registers used:
;;		wreg, fsr0l, fsr0h, status,2, status,0, pclath, cstack
;; Tracked objects:
;;		On entry : 0/0
;;		On exit  : 0/0
;;		Unchanged: 0/0
;; Data sizes:     COMMON   BANK0   BANK1   BANK3   BANK2
;;      Params:         0       0       0       0       0
;;      Locals:         1       0       0       0       0
;;      Temps:          1       0       0       0       0
;;      Totals:         2       0       0       0       0
;;Total ram usage:        2 bytes
;; Hardware stack levels used:    1
;; Hardware stack levels required when called:    1
;; This function calls:
;;		_Lcd_Data
;; This function is called by:
;;		_main
;; This function uses a non-reentrant model
;;
psect	text102
	file	"E:\02-CODING\05-LYCASOFT CODING\02-CODING\13-LCD 0-9\CODE\LCD 0-9.c"
	line	43
	global	__size_of_Lcd_String
	__size_of_Lcd_String	equ	__end_of_Lcd_String-_Lcd_String
	
_Lcd_String:	
	opt	stack 6
; Regs used in _Lcd_String: [wreg-fsr0h+status,2+status,0+pclath+cstack]
;Lcd_String@Str stored from wreg
	movwf	(Lcd_String@Str)
	line	44
	
l2652:	
;LCD 0-9.c: 44: while(*Str != 0)
	goto	l2658
	
l694:	
	line	46
	
l2654:	
;LCD 0-9.c: 45: {
;LCD 0-9.c: 46: Lcd_Data(*Str++);
	movf	(Lcd_String@Str),w
	movwf	fsr0
	fcall	stringdir
	fcall	_Lcd_Data
	
l2656:	
	movlw	(01h)
	movwf	(??_Lcd_String+0)+0
	movf	(??_Lcd_String+0)+0,w
	addwf	(Lcd_String@Str),f
	goto	l2658
	line	47
	
l693:	
	line	44
	
l2658:	
	movf	(Lcd_String@Str),w
	movwf	fsr0
	fcall	stringdir
	iorlw	0
	skipz
	goto	u2241
	goto	u2240
u2241:
	goto	l2654
u2240:
	goto	l696
	
l695:	
	line	48
	
l696:	
	return
	opt stack 0
GLOBAL	__end_of_Lcd_String
	__end_of_Lcd_String:
;; =============== function _Lcd_String ends ============

	signat	_Lcd_String,4216
	global	_Lcd_Data
psect	text103,local,class=CODE,delta=2
global __ptext103
__ptext103:

;; *************** function _Lcd_Data *****************
;; Defined at:
;;		line 28 in file "E:\02-CODING\05-LYCASOFT CODING\02-CODING\13-LCD 0-9\CODE\LCD 0-9.c"
;; Parameters:    Size  Location     Type
;;  Data            1    wreg     unsigned char 
;; Auto vars:     Size  Location     Type
;;  Data            1    2[COMMON] unsigned char 
;; Return value:  Size  Location     Type
;;		None               void
;; Registers used:
;;		wreg, status,2, status,0
;; Tracked objects:
;;		On entry : 0/0
;;		On exit  : 0/0
;;		Unchanged: 0/0
;; Data sizes:     COMMON   BANK0   BANK1   BANK3   BANK2
;;      Params:         0       0       0       0       0
;;      Locals:         1       0       0       0       0
;;      Temps:          2       0       0       0       0
;;      Totals:         3       0       0       0       0
;;Total ram usage:        3 bytes
;; Hardware stack levels used:    1
;; This function calls:
;;		Nothing
;; This function is called by:
;;		_Lcd_String
;;		_main
;; This function uses a non-reentrant model
;;
psect	text103
	file	"E:\02-CODING\05-LYCASOFT CODING\02-CODING\13-LCD 0-9\CODE\LCD 0-9.c"
	line	28
	global	__size_of_Lcd_Data
	__size_of_Lcd_Data	equ	__end_of_Lcd_Data-_Lcd_Data
	
_Lcd_Data:	
	opt	stack 7
; Regs used in _Lcd_Data: [wreg+status,2+status,0]
;Lcd_Data@Data stored from wreg
	movwf	(Lcd_Data@Data)
	line	29
	
l2632:	
;LCD 0-9.c: 29: PORTD = (Data & 0XF0);
	movf	(Lcd_Data@Data),w
	andlw	0F0h
	bcf	status, 5	;RP0=0, select bank0
	bcf	status, 6	;RP1=0, select bank0
	movwf	(8)	;volatile
	line	30
	
l2634:	
;LCD 0-9.c: 30: RD2 = 1;
	bsf	(66/8),(66)&7
	line	31
	
l2636:	
;LCD 0-9.c: 31: RD3 = 1;
	bsf	(67/8),(67)&7
	line	32
	
l2638:	
;LCD 0-9.c: 32: _delay((unsigned long)((5)*(20e6/4000.0)));
	opt asmopt_off
movlw	33
movwf	((??_Lcd_Data+0)+0+1),f
	movlw	118
movwf	((??_Lcd_Data+0)+0),f
u2287:
	decfsz	((??_Lcd_Data+0)+0),f
	goto	u2287
	decfsz	((??_Lcd_Data+0)+0+1),f
	goto	u2287
	clrwdt
opt asmopt_on

	line	33
	
l2640:	
;LCD 0-9.c: 33: RD3 = 0;
	bcf	status, 5	;RP0=0, select bank0
	bcf	status, 6	;RP1=0, select bank0
	bcf	(67/8),(67)&7
	line	35
	
l2642:	
;LCD 0-9.c: 35: PORTD = ((Data<<4) & 0xF0);
	movf	(Lcd_Data@Data),w
	movwf	(??_Lcd_Data+0)+0
	movlw	(04h)-1
u2235:
	clrc
	rlf	(??_Lcd_Data+0)+0,f
	addlw	-1
	skipz
	goto	u2235
	clrc
	rlf	(??_Lcd_Data+0)+0,w
	andlw	0F0h
	movwf	(8)	;volatile
	line	36
	
l2644:	
;LCD 0-9.c: 36: RD2 = 1;
	bsf	(66/8),(66)&7
	line	37
	
l2646:	
;LCD 0-9.c: 37: RD3 = 1;
	bsf	(67/8),(67)&7
	line	38
	
l2648:	
;LCD 0-9.c: 38: _delay((unsigned long)((5)*(20e6/4000.0)));
	opt asmopt_off
movlw	33
movwf	((??_Lcd_Data+0)+0+1),f
	movlw	118
movwf	((??_Lcd_Data+0)+0),f
u2297:
	decfsz	((??_Lcd_Data+0)+0),f
	goto	u2297
	decfsz	((??_Lcd_Data+0)+0+1),f
	goto	u2297
	clrwdt
opt asmopt_on

	line	39
	
l2650:	
;LCD 0-9.c: 39: RD3 = 0;
	bcf	status, 5	;RP0=0, select bank0
	bcf	status, 6	;RP1=0, select bank0
	bcf	(67/8),(67)&7
	line	40
	
l690:	
	return
	opt stack 0
GLOBAL	__end_of_Lcd_Data
	__end_of_Lcd_Data:
;; =============== function _Lcd_Data ends ============

	signat	_Lcd_Data,4216
	global	_Lcd_Command
psect	text104,local,class=CODE,delta=2
global __ptext104
__ptext104:

;; *************** function _Lcd_Command *****************
;; Defined at:
;;		line 13 in file "E:\02-CODING\05-LYCASOFT CODING\02-CODING\13-LCD 0-9\CODE\LCD 0-9.c"
;; Parameters:    Size  Location     Type
;;  cmd             1    wreg     unsigned char 
;; Auto vars:     Size  Location     Type
;;  cmd             1    2[COMMON] unsigned char 
;; Return value:  Size  Location     Type
;;		None               void
;; Registers used:
;;		wreg, status,2, status,0
;; Tracked objects:
;;		On entry : 0/0
;;		On exit  : 0/0
;;		Unchanged: 0/0
;; Data sizes:     COMMON   BANK0   BANK1   BANK3   BANK2
;;      Params:         0       0       0       0       0
;;      Locals:         1       0       0       0       0
;;      Temps:          2       0       0       0       0
;;      Totals:         3       0       0       0       0
;;Total ram usage:        3 bytes
;; Hardware stack levels used:    1
;; This function calls:
;;		Nothing
;; This function is called by:
;;		_Lcd_Intialization
;;		_main
;; This function uses a non-reentrant model
;;
psect	text104
	file	"E:\02-CODING\05-LYCASOFT CODING\02-CODING\13-LCD 0-9\CODE\LCD 0-9.c"
	line	13
	global	__size_of_Lcd_Command
	__size_of_Lcd_Command	equ	__end_of_Lcd_Command-_Lcd_Command
	
_Lcd_Command:	
	opt	stack 7
; Regs used in _Lcd_Command: [wreg+status,2+status,0]
;Lcd_Command@cmd stored from wreg
	movwf	(Lcd_Command@cmd)
	line	14
	
l2612:	
;LCD 0-9.c: 14: PORTD = (cmd & 0XF0);
	movf	(Lcd_Command@cmd),w
	andlw	0F0h
	bcf	status, 5	;RP0=0, select bank0
	bcf	status, 6	;RP1=0, select bank0
	movwf	(8)	;volatile
	line	15
	
l2614:	
;LCD 0-9.c: 15: RD2 = 0;
	bcf	(66/8),(66)&7
	line	16
	
l2616:	
;LCD 0-9.c: 16: RD3 = 1;
	bsf	(67/8),(67)&7
	line	17
	
l2618:	
;LCD 0-9.c: 17: _delay((unsigned long)((5)*(20e6/4000.0)));
	opt asmopt_off
movlw	33
movwf	((??_Lcd_Command+0)+0+1),f
	movlw	118
movwf	((??_Lcd_Command+0)+0),f
u2307:
	decfsz	((??_Lcd_Command+0)+0),f
	goto	u2307
	decfsz	((??_Lcd_Command+0)+0+1),f
	goto	u2307
	clrwdt
opt asmopt_on

	line	18
	
l2620:	
;LCD 0-9.c: 18: RD3 = 0;
	bcf	status, 5	;RP0=0, select bank0
	bcf	status, 6	;RP1=0, select bank0
	bcf	(67/8),(67)&7
	line	20
	
l2622:	
;LCD 0-9.c: 20: PORTD = ((cmd<<4) & 0xF0);
	movf	(Lcd_Command@cmd),w
	movwf	(??_Lcd_Command+0)+0
	movlw	(04h)-1
u2225:
	clrc
	rlf	(??_Lcd_Command+0)+0,f
	addlw	-1
	skipz
	goto	u2225
	clrc
	rlf	(??_Lcd_Command+0)+0,w
	andlw	0F0h
	movwf	(8)	;volatile
	line	21
	
l2624:	
;LCD 0-9.c: 21: RD2 = 0;
	bcf	(66/8),(66)&7
	line	22
	
l2626:	
;LCD 0-9.c: 22: RD3 = 1;
	bsf	(67/8),(67)&7
	line	23
	
l2628:	
;LCD 0-9.c: 23: _delay((unsigned long)((5)*(20e6/4000.0)));
	opt asmopt_off
movlw	33
movwf	((??_Lcd_Command+0)+0+1),f
	movlw	118
movwf	((??_Lcd_Command+0)+0),f
u2317:
	decfsz	((??_Lcd_Command+0)+0),f
	goto	u2317
	decfsz	((??_Lcd_Command+0)+0+1),f
	goto	u2317
	clrwdt
opt asmopt_on

	line	24
	
l2630:	
;LCD 0-9.c: 24: RD3 = 0;
	bcf	status, 5	;RP0=0, select bank0
	bcf	status, 6	;RP1=0, select bank0
	bcf	(67/8),(67)&7
	line	25
	
l687:	
	return
	opt stack 0
GLOBAL	__end_of_Lcd_Command
	__end_of_Lcd_Command:
;; =============== function _Lcd_Command ends ============

	signat	_Lcd_Command,4216
psect	text105,local,class=CODE,delta=2
global __ptext105
__ptext105:
	global	btemp
	btemp set 07Eh

	DABS	1,126,2	;btemp
	global	wtemp0
	wtemp0 set btemp
	end
